target datalayout = "e-m:e-p270:32:32-p271:32:32-p272:64:64-i64:64-i128:128-f80:128-n8:16:32:64-S128"
target triple = "x86_64-pc-linux-gnu"

%"class.std::vector.5" = type { %"struct.std::_Vector_base.6" }
%"struct.std::_Vector_base.6" = type { %"struct.std::_Vector_base<float, std::allocator<float>>::_Vector_impl" }
%"struct.std::_Vector_base<float, std::allocator<float>>::_Vector_impl" = type { %"struct.std::_Vector_base<float, std::allocator<float>>::_Vector_impl_data" }
%"struct.std::_Vector_base<float, std::allocator<float>>::_Vector_impl_data" = type { ptr, ptr, ptr }
%"struct.faiss::(anonymous namespace)::QueryTables" = type { ptr, ptr, i32, ptr, i32, i8, i32, i32, ptr, ptr, ptr, ptr, %"class.std::vector.5", %"class.std::vector.45", ptr, i64, float, %"class.std::vector.50", i64 }
%"class.std::vector.45" = type { %"struct.std::_Vector_base.46" }
%"struct.std::_Vector_base.46" = type { %"struct.std::_Vector_base<const float *, std::allocator<const float *>>::_Vector_impl" }
%"struct.std::_Vector_base<const float *, std::allocator<const float *>>::_Vector_impl" = type { %"struct.std::_Vector_base<const float *, std::allocator<const float *>>::_Vector_impl_data" }
%"struct.std::_Vector_base<const float *, std::allocator<const float *>>::_Vector_impl_data" = type { ptr, ptr, ptr }
%"class.std::vector.50" = type { %"struct.std::_Vector_base.51" }
%"struct.std::_Vector_base.51" = type { %"struct.std::_Vector_base<unsigned char, std::allocator<unsigned char>>::_Vector_impl" }
%"struct.std::_Vector_base<unsigned char, std::allocator<unsigned char>>::_Vector_impl" = type { %"struct.std::_Vector_base<unsigned char, std::allocator<unsigned char>>::_Vector_impl_data" }
%"struct.std::_Vector_base<unsigned char, std::allocator<unsigned char>>::_Vector_impl_data" = type { ptr, ptr, ptr }

; Function Attrs: mustprogress nounwind uwtable
define linkonce_odr noundef ptr @_ZNKSt6vectorIhSaIhEE11_M_data_ptrIhEEPT_S4_(ptr noundef nonnull align 8 dereferenceable(24) %0, ptr noundef %1) #3 comdat align 2 {
  %3 = alloca ptr, align 8
  %4 = alloca ptr, align 8
  store ptr %0, ptr %3, align 8, !tbaa !328
  store ptr %1, ptr %4, align 8, !tbaa !13
  %5 = load ptr, ptr %4, align 8, !tbaa !13
  ret ptr %5
}

; Function Attrs: mustprogress nounwind uwtable
define linkonce_odr noundef ptr @_ZNSt6vectorIhSaIhEE4dataEv(ptr noundef nonnull align 8 dereferenceable(24) %0) #3 comdat align 2 {
  %2 = alloca ptr, align 8
  store ptr %0, ptr %2, align 8, !tbaa !328
  %3 = load ptr, ptr %2, align 8
  %4 = getelementptr inbounds nuw %"struct.std::_Vector_base.51", ptr %3, i32 0, i32 0
  %5 = getelementptr inbounds nuw %"struct.std::_Vector_base<unsigned char, std::allocator<unsigned char>>::_Vector_impl_data", ptr %4, i32 0, i32 0
  %6 = load ptr, ptr %5, align 8, !tbaa !330
  %7 = call noundef ptr @_ZNKSt6vectorIhSaIhEE11_M_data_ptrIhEEPT_S4_(ptr noundef nonnull align 8 dereferenceable(24) %3, ptr noundef %6) #18
  ret ptr %7
}

; Function Attrs: mustprogress uwtable
define internal void @_ZN5faiss12_GLOBAL__N_111QueryTables13init_query_L2Ev(ptr noundef nonnull align 8 dereferenceable(184) %0) #2 align 2 {
  %2 = alloca ptr, align 8
  store ptr %0, ptr %2, align 8, !tbaa !309
  %3 = load ptr, ptr %2, align 8
  %4 = getelementptr inbounds nuw %"struct.faiss::(anonymous namespace)::QueryTables", ptr %3, i32 0, i32 5
  %5 = load i8, ptr %4, align 4, !tbaa !313, !range !45, !noundef !46
  %6 = trunc i8 %5 to i1
  br i1 %6, label %14, label %7

7:                                                ; preds = %1
  %8 = getelementptr inbounds nuw %"struct.faiss::(anonymous namespace)::QueryTables", ptr %3, i32 0, i32 3
  %9 = load ptr, ptr %8, align 8, !tbaa !289
  %10 = getelementptr inbounds nuw %"struct.faiss::(anonymous namespace)::QueryTables", ptr %3, i32 0, i32 14
  %11 = load ptr, ptr %10, align 8, !tbaa !359
  %12 = getelementptr inbounds nuw %"struct.faiss::(anonymous namespace)::QueryTables", ptr %3, i32 0, i32 8
  %13 = load ptr, ptr %12, align 8, !tbaa !291
  call void @_ZNK5faiss16ProductQuantizer22compute_distance_tableEPKfPf(ptr noundef nonnull align 8 dereferenceable(216) %9, ptr noundef %11, ptr noundef %13)
  br label %26

14:                                               ; preds = %1
  %15 = getelementptr inbounds nuw %"struct.faiss::(anonymous namespace)::QueryTables", ptr %3, i32 0, i32 6
  %16 = load i32, ptr %15, align 8, !tbaa !314
  %17 = icmp ne i32 %16, 0
  br i1 %17, label %18, label %25

18:                                               ; preds = %14
  %19 = getelementptr inbounds nuw %"struct.faiss::(anonymous namespace)::QueryTables", ptr %3, i32 0, i32 3
  %20 = load ptr, ptr %19, align 8, !tbaa !289
  %21 = getelementptr inbounds nuw %"struct.faiss::(anonymous namespace)::QueryTables", ptr %3, i32 0, i32 14
  %22 = load ptr, ptr %21, align 8, !tbaa !359
  %23 = getelementptr inbounds nuw %"struct.faiss::(anonymous namespace)::QueryTables", ptr %3, i32 0, i32 9
  %24 = load ptr, ptr %23, align 8, !tbaa !315
  call void @_ZNK5faiss16ProductQuantizer24compute_inner_prod_tableEPKfPf(ptr noundef nonnull align 8 dereferenceable(216) %20, ptr noundef %22, ptr noundef %24)
  br label %25

25:                                               ; preds = %18, %14
  br label %26

26:                                               ; preds = %25, %7
  ret void
}

; Function Attrs: mustprogress uwtable
define internal void @_ZN5faiss12_GLOBAL__N_111QueryTables13init_query_IPEv(ptr noundef nonnull align 8 dereferenceable(184) %0) #2 align 2 {
  %2 = alloca ptr, align 8
  store ptr %0, ptr %2, align 8, !tbaa !309
  %3 = load ptr, ptr %2, align 8
  %4 = getelementptr inbounds nuw %"struct.faiss::(anonymous namespace)::QueryTables", ptr %3, i32 0, i32 3
  %5 = load ptr, ptr %4, align 8, !tbaa !289
  %6 = getelementptr inbounds nuw %"struct.faiss::(anonymous namespace)::QueryTables", ptr %3, i32 0, i32 14
  %7 = load ptr, ptr %6, align 8, !tbaa !359
  %8 = getelementptr inbounds nuw %"struct.faiss::(anonymous namespace)::QueryTables", ptr %3, i32 0, i32 8
  %9 = load ptr, ptr %8, align 8, !tbaa !291
  call void @_ZNK5faiss16ProductQuantizer24compute_inner_prod_tableEPKfPf(ptr noundef nonnull align 8 dereferenceable(216) %5, ptr noundef %7, ptr noundef %9)
  ret void
}

; Function Attrs: mustprogress uwtable
define internal void @_ZN5faiss12_GLOBAL__N_111QueryTables10init_queryEPKf(ptr noundef nonnull align 8 dereferenceable(184) %0, ptr noundef %1) #2 align 2 {
  %3 = alloca ptr, align 8
  %4 = alloca ptr, align 8
  store ptr %0, ptr %3, align 8, !tbaa !309
  store ptr %1, ptr %4, align 8, !tbaa !15
  %5 = load ptr, ptr %3, align 8
  %6 = load ptr, ptr %4, align 8, !tbaa !15
  %7 = getelementptr inbounds nuw %"struct.faiss::(anonymous namespace)::QueryTables", ptr %5, i32 0, i32 14
  store ptr %6, ptr %7, align 8, !tbaa !359
  %8 = getelementptr inbounds nuw %"struct.faiss::(anonymous namespace)::QueryTables", ptr %5, i32 0, i32 4
  %9 = load i32, ptr %8, align 8, !tbaa !312
  %10 = icmp eq i32 %9, 0
  br i1 %10, label %11, label %12

11:                                               ; preds = %2
  call void @_ZN5faiss12_GLOBAL__N_111QueryTables13init_query_IPEv(ptr noundef nonnull align 8 dereferenceable(184) %5)
  br label %13

12:                                               ; preds = %2
  call void @_ZN5faiss12_GLOBAL__N_111QueryTables13init_query_L2Ev(ptr noundef nonnull align 8 dereferenceable(184) %5)
  br label %13

13:                                               ; preds = %12, %11
  %14 = getelementptr inbounds nuw %"struct.faiss::(anonymous namespace)::QueryTables", ptr %5, i32 0, i32 5
  %15 = load i8, ptr %14, align 4, !tbaa !313, !range !45, !noundef !46
  %16 = trunc i8 %15 to i1
  br i1 %16, label %27, label %17

17:                                               ; preds = %13
  %18 = getelementptr inbounds nuw %"struct.faiss::(anonymous namespace)::QueryTables", ptr %5, i32 0, i32 7
  %19 = load i32, ptr %18, align 4, !tbaa !301
  %20 = icmp ne i32 %19, 0
  br i1 %20, label %21, label %27

21:                                               ; preds = %17
  %22 = getelementptr inbounds nuw %"struct.faiss::(anonymous namespace)::QueryTables", ptr %5, i32 0, i32 3
  %23 = load ptr, ptr %22, align 8, !tbaa !289
  %24 = load ptr, ptr %4, align 8, !tbaa !15
  %25 = getelementptr inbounds nuw %"struct.faiss::(anonymous namespace)::QueryTables", ptr %5, i32 0, i32 17
  %26 = call noundef ptr @_ZNSt6vectorIhSaIhEE4dataEv(ptr noundef nonnull align 8 dereferenceable(24) %25) #18
  call void @_ZNK5faiss16ProductQuantizer12compute_codeEPKfPh(ptr noundef nonnull align 8 dereferenceable(216) %23, ptr noundef %24, ptr noundef %26)
  br label %27

27:                                               ; preds = %21, %17, %13
  ret void
}