; Function Attrs: mustprogress uwtable
define internal fastcc void @_ZN5faiss12_GLOBAL__N_111QueryTables10init_queryEPKf(ptr noundef nonnull align 8 captures(none) dereferenceable(184) initializes((128, 136)) %0, ptr noundef %1) unnamed_addr #2 align 2 {
  %3 = getelementptr inbounds nuw i8, ptr %0, i64 128
  store ptr %1, ptr %3, align 8, !tbaa !229
  %4 = getelementptr inbounds nuw i8, ptr %0, i64 32
  %5 = load i32, ptr %4, align 8, !tbaa !486
  %6 = icmp eq i32 %5, 0
  br i1 %6, label %7, label %12

7:                                                ; preds = %2
  %8 = getelementptr inbounds nuw i8, ptr %0, i64 24
  %9 = load ptr, ptr %8, align 8, !tbaa !179
  %10 = getelementptr inbounds nuw i8, ptr %0, i64 48
  %11 = load ptr, ptr %10, align 8, !tbaa !181
  tail call void @_ZNK5faiss16ProductQuantizer24compute_inner_prod_tableEPKfPf(ptr noundef nonnull align 8 dereferenceable(216) %9, ptr noundef %1, ptr noundef %11)
  br label %_ZN5faiss12_GLOBAL__N_111QueryTables13init_query_L2Ev.exit

12:                                               ; preds = %2
  %13 = getelementptr inbounds nuw i8, ptr %0, i64 36
  %14 = load i8, ptr %13, align 4, !tbaa !226, !range !45, !noundef !46
  %15 = trunc nuw i8 %14 to i1
  br i1 %15, label %21, label %16

16:                                               ; preds = %12
  %17 = getelementptr inbounds nuw i8, ptr %0, i64 24
  %18 = load ptr, ptr %17, align 8, !tbaa !179
  %19 = getelementptr inbounds nuw i8, ptr %0, i64 48
  %20 = load ptr, ptr %19, align 8, !tbaa !181
  tail call void @_ZNK5faiss16ProductQuantizer22compute_distance_tableEPKfPf(ptr noundef nonnull align 8 dereferenceable(216) %18, ptr noundef %1, ptr noundef %20)
  br label %_ZN5faiss12_GLOBAL__N_111QueryTables13init_query_L2Ev.exit

21:                                               ; preds = %12
  %22 = getelementptr inbounds nuw i8, ptr %0, i64 40
  %23 = load i32, ptr %22, align 8, !tbaa !488
  %.not.i = icmp eq i32 %23, 0
  br i1 %.not.i, label %_ZN5faiss12_GLOBAL__N_111QueryTables13init_query_L2Ev.exit, label %24

24:                                               ; preds = %21
  %25 = getelementptr inbounds nuw i8, ptr %0, i64 24
  %26 = load ptr, ptr %25, align 8, !tbaa !179
  %27 = getelementptr inbounds nuw i8, ptr %0, i64 56
  %28 = load ptr, ptr %27, align 8, !tbaa !222
  tail call void @_ZNK5faiss16ProductQuantizer24compute_inner_prod_tableEPKfPf(ptr noundef nonnull align 8 dereferenceable(216) %26, ptr noundef %1, ptr noundef %28)
  br label %_ZN5faiss12_GLOBAL__N_111QueryTables13init_query_L2Ev.exit

_ZN5faiss12_GLOBAL__N_111QueryTables13init_query_L2Ev.exit: ; preds = %24, %21, %16, %7
  %29 = getelementptr inbounds nuw i8, ptr %0, i64 36
  %30 = load i8, ptr %29, align 4, !tbaa !226, !range !45, !noundef !46
  %31 = trunc nuw i8 %30 to i1
  %32 = getelementptr inbounds nuw i8, ptr %0, i64 44
  %33 = load i32, ptr %32, align 4
  %.not = icmp eq i32 %33, 0
  %or.cond = select i1 %31, i1 true, i1 %.not
  br i1 %or.cond, label %39, label %34

34:                                               ; preds = %_ZN5faiss12_GLOBAL__N_111QueryTables13init_query_L2Ev.exit
  %35 = getelementptr inbounds nuw i8, ptr %0, i64 24
  %36 = load ptr, ptr %35, align 8, !tbaa !179
  %37 = getelementptr inbounds nuw i8, ptr %0, i64 152
  %38 = load ptr, ptr %37, align 8, !tbaa !234
  tail call void @_ZNK5faiss16ProductQuantizer12compute_codeEPKfPh(ptr noundef nonnull align 8 dereferenceable(216) %36, ptr noundef %1, ptr noundef %38)
  br label %39

39:                                               ; preds = %34, %_ZN5faiss12_GLOBAL__N_111QueryTables13init_query_L2Ev.exit
  ret void
}